target datalayout = "e-m:e-p270:32:32-p271:32:32-p272:64:64-i64:64-i128:128-f80:128-n8:16:32:64-S128"
target triple = "x86_64-unknown-linux-gnu"

%"class.grpc_core::ClientInitialMetadataOutstandingToken" = type { ptr }
%"class.std::unique_ptr.170" = type { %"struct.std::__uniq_ptr_data.171" }
%"struct.std::__uniq_ptr_data.171" = type { %"class.std::__uniq_ptr_impl.172" }
%"class.std::__uniq_ptr_impl.172" = type { %"class.std::tuple.173" }
%"class.std::tuple.173" = type { %"struct.std::_Tuple_impl.174" }
%"struct.std::_Tuple_impl.174" = type { %"struct.std::_Head_base.177" }
%"struct.std::_Head_base.177" = type { ptr }
%"class.grpc_core::RefCountedPtr.197" = type { ptr }
%"class.grpc_core::RefCountedPtr.201" = type { ptr }
%"class.grpc_core::promise_detail::PromiseLike.232" = type { %class.anon.233 }
%class.anon.233 = type { %"class.grpc_core::RefCountedPtr.234", %class.anon.235 }
%"class.grpc_core::RefCountedPtr.234" = type { ptr }
%class.anon.235 = type { ptr }
%"class.grpc_core::promise_detail::PromiseLike.247" = type { %class.anon.248 }
%class.anon.248 = type { ptr }
%"class.grpc_core::promise_detail::Seq.274" = type { %"struct.grpc_core::promise_detail::SeqState.275" }
%"struct.grpc_core::promise_detail::SeqState.275" = type <{ %union.anon.276, i8, [7 x i8] }>
%union.anon.276 = type { %"struct.grpc_core::promise_detail::SeqState<grpc_core::promise_detail::SeqTraits, (lambda at /home/dtcxzyw/WorkSpace/Projects/compilers/llvm-opt-benchmark/bench/grpc/grpc/src/core/lib/transport/batch_builder.h:243:14), (lambda at /home/dtcxzyw/WorkSpace/Projects/compilers/llvm-opt-benchmark/bench/grpc/grpc/src/core/lib/channel/connected_channel.cc:495:7)>::Running0" }
%"struct.grpc_core::promise_detail::SeqState<grpc_core::promise_detail::SeqTraits, (lambda at /home/dtcxzyw/WorkSpace/Projects/compilers/llvm-opt-benchmark/bench/grpc/grpc/src/core/lib/transport/batch_builder.h:243:14), (lambda at /home/dtcxzyw/WorkSpace/Projects/compilers/llvm-opt-benchmark/bench/grpc/grpc/src/core/lib/channel/connected_channel.cc:495:7)>::Running0" = type { %"class.grpc_core::promise_detail::PromiseLike.232", %"class.grpc_core::promise_detail::OncePromiseFactory.277" }
%"class.grpc_core::promise_detail::OncePromiseFactory.277" = type { %class.anon.278 }
%class.anon.278 = type { %"class.grpc_core::ClientInitialMetadataOutstandingToken" }
%"class.grpc_core::promise_detail::Map.281" = type <{ %"class.grpc_core::promise_detail::PromiseLike.282", %class.anon.286, [7 x i8] }>
%"class.grpc_core::promise_detail::PromiseLike.282" = type { %class.anon.283 }
%class.anon.283 = type { %"class.grpc_core::RefCountedPtr.234", %"class.grpc_core::promise_detail::Map.284" }
%"class.grpc_core::promise_detail::Map.284" = type { %"class.grpc_core::promise_detail::PromiseLike.247", %class.anon.285 }
%class.anon.285 = type { ptr }
%class.anon.286 = type { i8 }
%"class.grpc_core::promise_detail::Loop" = type <{ %"class.grpc_core::promise_detail::RepeatedPromiseFactory.289", %union.anon.291, i8, [7 x i8] }>
%"class.grpc_core::promise_detail::RepeatedPromiseFactory.289" = type { %class.anon.290 }
%class.anon.290 = type { %"class.grpc_core::RefCountedPtr.197", i8, %"class.grpc_core::PipeSender" }
%"class.grpc_core::PipeSender" = type { %"class.grpc_core::RefCountedPtr.201" }
%union.anon.291 = type { %"class.grpc_core::promise_detail::PromiseLike.292" }
%"class.grpc_core::promise_detail::PromiseLike.292" = type { %"class.grpc_core::promise_detail::Seq.293" }
%"class.grpc_core::promise_detail::Seq.293" = type { %"struct.grpc_core::promise_detail::SeqState.294" }
%"struct.grpc_core::promise_detail::SeqState.294" = type <{ %union.anon.295, i8, [7 x i8] }>
%union.anon.295 = type { %"struct.grpc_core::promise_detail::SeqState<grpc_core::promise_detail::SeqTraits, (lambda at /home/dtcxzyw/WorkSpace/Projects/compilers/llvm-opt-benchmark/bench/grpc/grpc/src/core/lib/transport/batch_builder.h:243:14), (lambda at /home/dtcxzyw/WorkSpace/Projects/compilers/llvm-opt-benchmark/bench/grpc/grpc/src/core/lib/channel/connected_channel.cc:377:9)>::Running0", [8 x i8] }
%"struct.grpc_core::promise_detail::SeqState<grpc_core::promise_detail::SeqTraits, (lambda at /home/dtcxzyw/WorkSpace/Projects/compilers/llvm-opt-benchmark/bench/grpc/grpc/src/core/lib/transport/batch_builder.h:243:14), (lambda at /home/dtcxzyw/WorkSpace/Projects/compilers/llvm-opt-benchmark/bench/grpc/grpc/src/core/lib/channel/connected_channel.cc:377:9)>::Running0" = type { %"class.grpc_core::promise_detail::PromiseLike.296", %"class.grpc_core::promise_detail::OncePromiseFactory.300" }
%"class.grpc_core::promise_detail::PromiseLike.296" = type { %class.anon.297 }
%class.anon.297 = type { %"class.grpc_core::RefCountedPtr.234", %"class.grpc_core::promise_detail::Map.298" }
%"class.grpc_core::promise_detail::Map.298" = type { %"class.grpc_core::promise_detail::PromiseLike.247", %class.anon.299 }
%class.anon.299 = type { ptr }
%"class.grpc_core::promise_detail::OncePromiseFactory.300" = type { %class.anon.301 }
%class.anon.301 = type { i8, ptr }
%"class.grpc_core::promise_detail::Map.359" = type { %"class.grpc_core::promise_detail::PromiseLike.360", %class.anon.364 }
%"class.grpc_core::promise_detail::PromiseLike.360" = type { %class.anon.base.362, [5 x i8] }
%class.anon.base.362 = type { %"class.grpc_core::promise_detail::Seq.274", %"class.grpc_core::promise_detail::Loop", %"class.grpc_core::promise_detail::Map.281", i8, i8, i8 }
%class.anon.364 = type { %"class.std::unique_ptr.170" }

; Function Attrs: mustprogress nounwind uwtable
define linkonce_odr noundef nonnull align 1 dereferenceable(1) ptr @_ZNSt10_Head_baseILm1EN9grpc_core16OrphanableDeleteELb1EE7_M_headERS2_(ptr noundef nonnull align 1 dereferenceable(1) %__b) #4 comdat align 2 {
entry:
  %__b.addr = alloca ptr, align 8
  store ptr %__b, ptr %__b.addr, align 8
  %0 = load ptr, ptr %__b.addr, align 8
  ret ptr %0
}

; Function Attrs: mustprogress nounwind uwtable
define linkonce_odr noundef nonnull align 1 dereferenceable(1) ptr @_ZNSt11_Tuple_implILm1EJN9grpc_core16OrphanableDeleteEEE7_M_headERS2_(ptr noundef nonnull align 1 dereferenceable(1) %__t) #4 comdat align 2 {
entry:
  %__t.addr = alloca ptr, align 8
  store ptr %__t, ptr %__t.addr, align 8
  %0 = load ptr, ptr %__t.addr, align 8
  %call = call noundef nonnull align 1 dereferenceable(1) ptr @_ZNSt10_Head_baseILm1EN9grpc_core16OrphanableDeleteELb1EE7_M_headERS2_(ptr noundef nonnull align 1 dereferenceable(1) %0) #3
  ret ptr %call
}

; Function Attrs: mustprogress nounwind uwtable
define internal noundef nonnull align 8 dereferenceable(8) ptr @_ZNSt10_Head_baseILm0EPN9grpc_core12_GLOBAL__N_122ConnectedChannelStreamELb0EE7_M_headERS4_(ptr noundef nonnull align 8 dereferenceable(8) %__b) #4 align 2 {
entry:
  %__b.addr = alloca ptr, align 8
  store ptr %__b, ptr %__b.addr, align 8
  %0 = load ptr, ptr %__b.addr, align 8
  %_M_head_impl = getelementptr inbounds %"struct.std::_Head_base.177", ptr %0, i32 0, i32 0
  ret ptr %_M_head_impl
}

; Function Attrs: mustprogress nounwind uwtable
define linkonce_odr noundef nonnull align 1 dereferenceable(1) ptr @_ZSt12__get_helperILm1EN9grpc_core16OrphanableDeleteEJEERT0_RSt11_Tuple_implIXT_EJS2_DpT1_EE(ptr noundef nonnull align 1 dereferenceable(1) %__t) #4 comdat {
entry:
  %__t.addr = alloca ptr, align 8
  store ptr %__t, ptr %__t.addr, align 8
  %0 = load ptr, ptr %__t.addr, align 8
  %call = call noundef nonnull align 1 dereferenceable(1) ptr @_ZNSt11_Tuple_implILm1EJN9grpc_core16OrphanableDeleteEEE7_M_headERS2_(ptr noundef nonnull align 1 dereferenceable(1) %0) #3
  ret ptr %call
}

; Function Attrs: mustprogress nounwind uwtable
define internal noundef nonnull align 8 dereferenceable(8) ptr @_ZNSt11_Tuple_implILm0EJPN9grpc_core12_GLOBAL__N_122ConnectedChannelStreamENS0_16OrphanableDeleteEEE7_M_headERS5_(ptr noundef nonnull align 8 dereferenceable(8) %__t) #4 align 2 {
entry:
  %__t.addr = alloca ptr, align 8
  store ptr %__t, ptr %__t.addr, align 8
  %0 = load ptr, ptr %__t.addr, align 8
  %call = call noundef nonnull align 8 dereferenceable(8) ptr @_ZNSt10_Head_baseILm0EPN9grpc_core12_GLOBAL__N_122ConnectedChannelStreamELb0EE7_M_headERS4_(ptr noundef nonnull align 8 dereferenceable(8) %0) #3
  ret ptr %call
}

; Function Attrs: mustprogress nounwind uwtable
define internal noundef nonnull align 1 dereferenceable(1) ptr @_ZSt3getILm1EJPN9grpc_core12_GLOBAL__N_122ConnectedChannelStreamENS0_16OrphanableDeleteEEERNSt13tuple_elementIXT_ESt5tupleIJDpT0_EEE4typeERS9_(ptr noundef nonnull align 8 dereferenceable(8) %__t) #4 {
entry:
  %__t.addr = alloca ptr, align 8
  store ptr %__t, ptr %__t.addr, align 8
  %0 = load ptr, ptr %__t.addr, align 8
  %call = call noundef nonnull align 1 dereferenceable(1) ptr @_ZSt12__get_helperILm1EN9grpc_core16OrphanableDeleteEJEERT0_RSt11_Tuple_implIXT_EJS2_DpT1_EE(ptr noundef nonnull align 1 dereferenceable(1) %0) #3
  ret ptr %call
}

; Function Attrs: mustprogress nounwind uwtable
define internal noundef nonnull align 8 dereferenceable(8) ptr @_ZSt12__get_helperILm0EPN9grpc_core12_GLOBAL__N_122ConnectedChannelStreamEJNS0_16OrphanableDeleteEEERT0_RSt11_Tuple_implIXT_EJS5_DpT1_EE(ptr noundef nonnull align 8 dereferenceable(8) %__t) #4 {
entry:
  %__t.addr = alloca ptr, align 8
  store ptr %__t, ptr %__t.addr, align 8
  %0 = load ptr, ptr %__t.addr, align 8
  %call = call noundef nonnull align 8 dereferenceable(8) ptr @_ZNSt11_Tuple_implILm0EJPN9grpc_core12_GLOBAL__N_122ConnectedChannelStreamENS0_16OrphanableDeleteEEE7_M_headERS5_(ptr noundef nonnull align 8 dereferenceable(8) %0) #3
  ret ptr %call
}

; Function Attrs: mustprogress nounwind uwtable
define internal noundef nonnull align 1 dereferenceable(1) ptr @_ZNSt15__uniq_ptr_implIN9grpc_core12_GLOBAL__N_122ConnectedChannelStreamENS0_16OrphanableDeleteEE10_M_deleterEv(ptr noundef nonnull align 8 dereferenceable(8) %this) #4 align 2 {
entry:
  %this.addr = alloca ptr, align 8
  store ptr %this, ptr %this.addr, align 8
  %this1 = load ptr, ptr %this.addr, align 8
  %_M_t = getelementptr inbounds %"class.std::__uniq_ptr_impl.172", ptr %this1, i32 0, i32 0
  %call = call noundef nonnull align 1 dereferenceable(1) ptr @_ZSt3getILm1EJPN9grpc_core12_GLOBAL__N_122ConnectedChannelStreamENS0_16OrphanableDeleteEEERNSt13tuple_elementIXT_ESt5tupleIJDpT0_EEE4typeERS9_(ptr noundef nonnull align 8 dereferenceable(8) %_M_t) #3
  ret ptr %call
}

; Function Attrs: mustprogress nounwind uwtable
define internal noundef nonnull align 8 dereferenceable(8) ptr @_ZSt3getILm0EJPN9grpc_core12_GLOBAL__N_122ConnectedChannelStreamENS0_16OrphanableDeleteEEERNSt13tuple_elementIXT_ESt5tupleIJDpT0_EEE4typeERS9_(ptr noundef nonnull align 8 dereferenceable(8) %__t) #4 {
entry:
  %__t.addr = alloca ptr, align 8
  store ptr %__t, ptr %__t.addr, align 8
  %0 = load ptr, ptr %__t.addr, align 8
  %call = call noundef nonnull align 8 dereferenceable(8) ptr @_ZSt12__get_helperILm0EPN9grpc_core12_GLOBAL__N_122ConnectedChannelStreamEJNS0_16OrphanableDeleteEEERT0_RSt11_Tuple_implIXT_EJS5_DpT1_EE(ptr noundef nonnull align 8 dereferenceable(8) %0) #3
  ret ptr %call
}

; Function Attrs: mustprogress uwtable
define internal void @_ZN9grpc_core16OrphanableDeleteclINS_12_GLOBAL__N_122ConnectedChannelStreamEEEvPT_(ptr noundef nonnull align 1 dereferenceable(1) %this, ptr noundef %p) #5 align 2 {
entry:
  %this.addr = alloca ptr, align 8
  %p.addr = alloca ptr, align 8
  store ptr %this, ptr %this.addr, align 8
  store ptr %p, ptr %p.addr, align 8
  %0 = load ptr, ptr %p.addr, align 8
  call void @_ZN9grpc_core12_GLOBAL__N_122ConnectedChannelStream6OrphanEv(ptr noundef nonnull align 8 dereferenceable(132) %0)
  ret void
}

; Function Attrs: mustprogress nounwind uwtable
define internal noundef nonnull align 1 dereferenceable(1) ptr @_ZNSt10unique_ptrIN9grpc_core12_GLOBAL__N_122ConnectedChannelStreamENS0_16OrphanableDeleteEE11get_deleterEv(ptr noundef nonnull align 8 dereferenceable(8) %this) #4 align 2 {
entry:
  %this.addr = alloca ptr, align 8
  store ptr %this, ptr %this.addr, align 8
  %this1 = load ptr, ptr %this.addr, align 8
  %_M_t = getelementptr inbounds %"class.std::unique_ptr.170", ptr %this1, i32 0, i32 0
  %call = call noundef nonnull align 1 dereferenceable(1) ptr @_ZNSt15__uniq_ptr_implIN9grpc_core12_GLOBAL__N_122ConnectedChannelStreamENS0_16OrphanableDeleteEE10_M_deleterEv(ptr noundef nonnull align 8 dereferenceable(8) %_M_t) #3
  ret ptr %call
}

; Function Attrs: mustprogress nounwind uwtable
define internal noundef nonnull align 8 dereferenceable(8) ptr @_ZNSt15__uniq_ptr_implIN9grpc_core12_GLOBAL__N_122ConnectedChannelStreamENS0_16OrphanableDeleteEE6_M_ptrEv(ptr noundef nonnull align 8 dereferenceable(8) %this) #4 align 2 {
entry:
  %this.addr = alloca ptr, align 8
  store ptr %this, ptr %this.addr, align 8
  %this1 = load ptr, ptr %this.addr, align 8
  %_M_t = getelementptr inbounds %"class.std::__uniq_ptr_impl.172", ptr %this1, i32 0, i32 0
  %call = call noundef nonnull align 8 dereferenceable(8) ptr @_ZSt3getILm0EJPN9grpc_core12_GLOBAL__N_122ConnectedChannelStreamENS0_16OrphanableDeleteEEERNSt13tuple_elementIXT_ESt5tupleIJDpT0_EEE4typeERS9_(ptr noundef nonnull align 8 dereferenceable(8) %_M_t) #3
  ret ptr %call
}

; Function Attrs: mustprogress nounwind uwtable
define internal void @_ZNSt10unique_ptrIN9grpc_core12_GLOBAL__N_122ConnectedChannelStreamENS0_16OrphanableDeleteEED2Ev(ptr noundef nonnull align 8 dereferenceable(8) %this) unnamed_addr #4 align 2 personality ptr @__gxx_personality_v0 {
entry:
  %this.addr = alloca ptr, align 8
  %__ptr = alloca ptr, align 8
  store ptr %this, ptr %this.addr, align 8
  %this1 = load ptr, ptr %this.addr, align 8
  %_M_t = getelementptr inbounds %"class.std::unique_ptr.170", ptr %this1, i32 0, i32 0
  %call = call noundef nonnull align 8 dereferenceable(8) ptr @_ZNSt15__uniq_ptr_implIN9grpc_core12_GLOBAL__N_122ConnectedChannelStreamENS0_16OrphanableDeleteEE6_M_ptrEv(ptr noundef nonnull align 8 dereferenceable(8) %_M_t) #3
  store ptr %call, ptr %__ptr, align 8
  %0 = load ptr, ptr %__ptr, align 8
  %1 = load ptr, ptr %0, align 8
  %cmp = icmp ne ptr %1, null
  br i1 %cmp, label %if.then, label %if.end

if.then:                                          ; preds = %entry
  %call2 = call noundef nonnull align 1 dereferenceable(1) ptr @_ZNSt10unique_ptrIN9grpc_core12_GLOBAL__N_122ConnectedChannelStreamENS0_16OrphanableDeleteEE11get_deleterEv(ptr noundef nonnull align 8 dereferenceable(8) %this1) #3
  %2 = load ptr, ptr %__ptr, align 8
  %3 = load ptr, ptr %2, align 8
  invoke void @_ZN9grpc_core16OrphanableDeleteclINS_12_GLOBAL__N_122ConnectedChannelStreamEEEvPT_(ptr noundef nonnull align 1 dereferenceable(1) %call2, ptr noundef %3)
          to label %invoke.cont unwind label %terminate.lpad

invoke.cont:                                      ; preds = %if.then
  br label %if.end

if.end:                                           ; preds = %invoke.cont, %entry
  %4 = load ptr, ptr %__ptr, align 8
  store ptr null, ptr %4, align 8
  ret void

terminate.lpad:                                   ; preds = %if.then
  %5 = landingpad { ptr, i32 }
          catch ptr null
  %6 = extractvalue { ptr, i32 } %5, 0
  call void @__clang_call_terminate(ptr %6) #16
  unreachable
}

; Function Attrs: mustprogress nounwind uwtable
define internal void @"_ZN9grpc_core14promise_detail11PromiseLikeIZNS_12_GLOBAL__N_121MakeClientCallPromiseEPNS_9TransportENS_8CallArgsESt8functionIFNS_12ArenaPromiseISt10unique_ptrI19grpc_metadata_batchNS_5Arena13PooledDeleterEEEES5_EEE3$_7vED2Ev"(ptr noundef nonnull align 8 dereferenceable(155) %this) unnamed_addr #4 align 2 {
entry:
  %this.addr = alloca ptr, align 8
  store ptr %this, ptr %this.addr, align 8
  %this1 = load ptr, ptr %this.addr, align 8
  %f_ = getelementptr inbounds %"class.grpc_core::promise_detail::PromiseLike.360", ptr %this1, i32 0, i32 0
  call void @"_ZZN9grpc_core12_GLOBAL__N_121MakeClientCallPromiseEPNS_9TransportENS_8CallArgsESt8functionIFNS_12ArenaPromiseISt10unique_ptrI19grpc_metadata_batchNS_5Arena13PooledDeleterEEEES3_EEEN3$_7D2Ev"(ptr noundef nonnull align 8 dereferenceable(155) %f_) #3
  ret void
}

; Function Attrs: mustprogress nounwind uwtable
define internal void @"_ZZN9grpc_core12_GLOBAL__N_121MakeClientCallPromiseEPNS_9TransportENS_8CallArgsESt8functionIFNS_12ArenaPromiseISt10unique_ptrI19grpc_metadata_batchNS_5Arena13PooledDeleterEEEES3_EEEN3$_8D2Ev"(ptr noundef nonnull align 8 dereferenceable(8) %this) unnamed_addr #4 align 2 {
entry:
  %this.addr = alloca ptr, align 8
  store ptr %this, ptr %this.addr, align 8
  %this1 = load ptr, ptr %this.addr, align 8
  %0 = getelementptr inbounds %class.anon.364, ptr %this1, i32 0, i32 0
  call void @_ZNSt10unique_ptrIN9grpc_core12_GLOBAL__N_122ConnectedChannelStreamENS0_16OrphanableDeleteEED2Ev(ptr noundef nonnull align 8 dereferenceable(8) %0) #3
  ret void
}

; Function Attrs: mustprogress nounwind uwtable
define internal void @"_ZN9grpc_core14promise_detail3MapIZNS_12_GLOBAL__N_121MakeClientCallPromiseEPNS_9TransportENS_8CallArgsESt8functionIFNS_12ArenaPromiseISt10unique_ptrI19grpc_metadata_batchNS_5Arena13PooledDeleterEEEES5_EEE3$_7ZNS2_21MakeClientCallPromiseES4_S5_SF_E3$_8ED2Ev"(ptr noundef nonnull align 8 dereferenceable(168) %this) unnamed_addr #4 align 2 {
entry:
  %this.addr = alloca ptr, align 8
  store ptr %this, ptr %this.addr, align 8
  %this1 = load ptr, ptr %this.addr, align 8
  %fn_ = getelementptr inbounds %"class.grpc_core::promise_detail::Map.359", ptr %this1, i32 0, i32 1
  call void @"_ZZN9grpc_core12_GLOBAL__N_121MakeClientCallPromiseEPNS_9TransportENS_8CallArgsESt8functionIFNS_12ArenaPromiseISt10unique_ptrI19grpc_metadata_batchNS_5Arena13PooledDeleterEEEES3_EEEN3$_8D2Ev"(ptr noundef nonnull align 8 dereferenceable(8) %fn_) #3
  %promise_ = getelementptr inbounds %"class.grpc_core::promise_detail::Map.359", ptr %this1, i32 0, i32 0
  call void @"_ZN9grpc_core14promise_detail11PromiseLikeIZNS_12_GLOBAL__N_121MakeClientCallPromiseEPNS_9TransportENS_8CallArgsESt8functionIFNS_12ArenaPromiseISt10unique_ptrI19grpc_metadata_batchNS_5Arena13PooledDeleterEEEES5_EEE3$_7vED2Ev"(ptr noundef nonnull align 8 dereferenceable(155) %promise_) #3
  ret void
}