; Function Attrs: mustprogress nounwind uwtable
define internal fastcc void @"_ZN9grpc_core14promise_detail3MapIZNS_12_GLOBAL__N_121MakeClientCallPromiseEPNS_9TransportENS_8CallArgsESt8functionIFNS_12ArenaPromiseISt10unique_ptrI19grpc_metadata_batchNS_5Arena13PooledDeleterEEEES5_EEE3$_7ZNS2_21MakeClientCallPromiseES4_S5_SF_E3$_8ED2Ev"(ptr noundef nonnull align 8 dereferenceable(168) %this) unnamed_addr #13 align 2 personality ptr @__gxx_personality_v0 {
entry:
  %fn_ = getelementptr inbounds i8, ptr %this, i64 160
  %0 = load ptr, ptr %fn_, align 8
  %cmp.not.i.i = icmp eq ptr %0, null
  br i1 %cmp.not.i.i, label %"_ZZN9grpc_core12_GLOBAL__N_121MakeClientCallPromiseEPNS_9TransportENS_8CallArgsESt8functionIFNS_12ArenaPromiseISt10unique_ptrI19grpc_metadata_batchNS_5Arena13PooledDeleterEEEES3_EEEN3$_8D2Ev.exit", label %if.then.i.i

if.then.i.i:                                      ; preds = %entry
  invoke void @_ZN9grpc_core12_GLOBAL__N_122ConnectedChannelStream6OrphanEv(ptr noundef nonnull align 8 dereferenceable(132) %0)
          to label %"_ZZN9grpc_core12_GLOBAL__N_121MakeClientCallPromiseEPNS_9TransportENS_8CallArgsESt8functionIFNS_12ArenaPromiseISt10unique_ptrI19grpc_metadata_batchNS_5Arena13PooledDeleterEEEES3_EEEN3$_8D2Ev.exit" unwind label %terminate.lpad.i.i

terminate.lpad.i.i:                               ; preds = %if.then.i.i
  %1 = landingpad { ptr, i32 }
          catch ptr null
  %2 = extractvalue { ptr, i32 } %1, 0
  tail call void @__clang_call_terminate(ptr %2) #24
  unreachable

"_ZZN9grpc_core12_GLOBAL__N_121MakeClientCallPromiseEPNS_9TransportENS_8CallArgsESt8functionIFNS_12ArenaPromiseISt10unique_ptrI19grpc_metadata_batchNS_5Arena13PooledDeleterEEEES3_EEEN3$_8D2Ev.exit": ; preds = %entry, %if.then.i.i
  store ptr null, ptr %fn_, align 8
  tail call fastcc void @"_ZZN9grpc_core12_GLOBAL__N_121MakeClientCallPromiseEPNS_9TransportENS_8CallArgsESt8functionIFNS_12ArenaPromiseISt10unique_ptrI19grpc_metadata_batchNS_5Arena13PooledDeleterEEEES3_EEEN3$_7D2Ev"(ptr noundef nonnull align 8 dereferenceable(155) %this) #23
  ret void
}